target datalayout = "e-m:e-p270:32:32-p271:32:32-p272:64:64-i64:64-i128:128-f80:128-n8:16:32:64-S128"
target triple = "x86_64-pc-linux-gnu"

%"class.icu_77::UCharsTrie::Iterator" = type { ptr, ptr, ptr, i32, i32, i8, %"class.icu_77::UnicodeString", i32, i32, ptr }
%"class.icu_77::UnicodeString" = type { %"class.icu_77::Replaceable", %"union.icu_77::UnicodeString::StackBufferOrFields" }
%"class.icu_77::Replaceable" = type { %"class.icu_77::UObject" }
%"class.icu_77::UObject" = type { ptr }
%"union.icu_77::UnicodeString::StackBufferOrFields" = type { %struct.anon.0, [32 x i8] }
%struct.anon.0 = type { i16, i32, i32, ptr }
%struct.anon = type { i16, [27 x i16] }
%"class.icu_77::ConstChar16Ptr" = type { ptr }
%"class.icu_77::UCharsTrie" = type <{ ptr, ptr, ptr, i32, [4 x i8] }>

@_ZTVN6icu_777UObjectE = available_externally unnamed_addr constant { [5 x ptr] } { [5 x ptr] [ptr null, ptr @_ZTIN6icu_777UObjectE, ptr @_ZN6icu_777UObjectD1Ev, ptr @_ZN6icu_777UObjectD0Ev, ptr @_ZNK6icu_777UObject17getDynamicClassIDEv] }, align 8

; Function Attrs: inlinehint mustprogress nounwind uwtable
define linkonce_odr noundef ptr @_ZNK6icu_7714ConstChar16Ptr3getEv(ptr noundef nonnull align 8 dereferenceable(8) %0) #2 comdat align 2 {
  %2 = alloca ptr, align 8
  store ptr %0, ptr %2, align 8, !tbaa !8
  %3 = load ptr, ptr %2, align 8
  %4 = getelementptr inbounds nuw %"class.icu_77::ConstChar16Ptr", ptr %3, i32 0, i32 0
  %5 = load ptr, ptr %4, align 8, !tbaa !42
  ret ptr %5
}

; Function Attrs: inlinehint mustprogress nounwind uwtable
define linkonce_odr void @_ZN6icu_777UObjectC2Ev(ptr noundef nonnull align 8 dereferenceable(8) %0) unnamed_addr #2 comdat align 2 {
  %2 = alloca ptr, align 8
  store ptr %0, ptr %2, align 8, !tbaa !57
  %3 = load ptr, ptr %2, align 8
  store ptr getelementptr inbounds inrange(-16, 24) ({ [5 x ptr] }, ptr @_ZTVN6icu_777UObjectE, i32 0, i32 0, i32 2), ptr %3, align 8, !tbaa !32
  ret void
}

; Function Attrs: inlinehint mustprogress uwtable
define linkonce_odr noundef ptr @_ZNK6icu_7714ConstChar16PtrcvPKDsEv(ptr noundef nonnull align 8 dereferenceable(8) %0) #1 comdat align 2 {
  %2 = alloca ptr, align 8
  store ptr %0, ptr %2, align 8, !tbaa !8
  %3 = load ptr, ptr %2, align 8
  %4 = call noundef ptr @_ZNK6icu_7714ConstChar16Ptr3getEv(ptr noundef nonnull align 8 dereferenceable(8) %3)
  ret ptr %4
}

; Function Attrs: inlinehint mustprogress nounwind uwtable
define linkonce_odr void @_ZN6icu_7711ReplaceableC2Ev(ptr noundef nonnull align 8 dereferenceable(8) %0) unnamed_addr #2 comdat align 2 {
  %2 = alloca ptr, align 8
  store ptr %0, ptr %2, align 8, !tbaa !55
  %3 = load ptr, ptr %2, align 8
  call void @_ZN6icu_777UObjectC2Ev(ptr noundef nonnull align 8 dereferenceable(8) %3) #7
  store ptr getelementptr inbounds inrange(-16, 88) ({ [13 x ptr] }, ptr @_ZTVN6icu_7711ReplaceableE, i32 0, i32 0, i32 2), ptr %3, align 8, !tbaa !32
  ret void
}

; Function Attrs: inlinehint mustprogress nounwind uwtable
define linkonce_odr void @_ZN6icu_7714ConstChar16PtrD2Ev(ptr noundef nonnull align 8 dereferenceable(8) %0) unnamed_addr #2 comdat align 2 {
  %2 = alloca ptr, align 8
  store ptr %0, ptr %2, align 8, !tbaa !8
  %3 = load ptr, ptr %2, align 8
  %4 = getelementptr inbounds nuw %"class.icu_77::ConstChar16Ptr", ptr %3, i32 0, i32 0
  %5 = load ptr, ptr %4, align 8, !tbaa !42
  call void asm sideeffect "", "rm,~{memory},~{dirflag},~{fpsr},~{flags}"(ptr %5) #7, !srcloc !44
  ret void
}

; Function Attrs: inlinehint mustprogress uwtable
define linkonce_odr noundef nonnull align 8 dereferenceable(64) ptr @_ZN6icu_7713UnicodeString6appendENS_14ConstChar16PtrEi(ptr noundef nonnull align 8 dereferenceable(64) %0, ptr noundef %1, i32 noundef %2) #1 comdat align 2 {
  %4 = alloca ptr, align 8
  %5 = alloca ptr, align 8
  %6 = alloca i32, align 4
  store ptr %0, ptr %4, align 8, !tbaa !30
  store ptr %1, ptr %5, align 8, !tbaa !8
  store i32 %2, ptr %6, align 4, !tbaa !10
  %7 = load ptr, ptr %4, align 8
  %8 = call noundef ptr @_ZNK6icu_7714ConstChar16PtrcvPKDsEv(ptr noundef nonnull align 8 dereferenceable(8) %1)
  %9 = load i32, ptr %6, align 4, !tbaa !10
  %10 = call noundef nonnull align 8 dereferenceable(64) ptr @_ZN6icu_7713UnicodeString8doAppendEPKDsii(ptr noundef nonnull align 8 dereferenceable(64) %7, ptr noundef %8, i32 noundef 0, i32 noundef %9)
  ret ptr %10
}

; Function Attrs: inlinehint mustprogress nounwind uwtable
define linkonce_odr void @_ZN6icu_7714ConstChar16PtrC2EPKDs(ptr noundef nonnull align 8 dereferenceable(8) %0, ptr noundef %1) unnamed_addr #2 comdat align 2 {
  %3 = alloca ptr, align 8
  %4 = alloca ptr, align 8
  store ptr %0, ptr %3, align 8, !tbaa !8
  store ptr %1, ptr %4, align 8, !tbaa !41
  %5 = load ptr, ptr %3, align 8
  %6 = getelementptr inbounds nuw %"class.icu_77::ConstChar16Ptr", ptr %5, i32 0, i32 0
  %7 = load ptr, ptr %4, align 8, !tbaa !41
  store ptr %7, ptr %6, align 8, !tbaa !42
  ret void
}

; Function Attrs: inlinehint mustprogress nounwind uwtable
define internal noundef signext i8 @_ZL9U_FAILURE10UErrorCode(i32 noundef %0) #2 {
  %2 = alloca i32, align 4
  store i32 %0, ptr %2, align 4, !tbaa !28
  %3 = load i32, ptr %2, align 4, !tbaa !28
  %4 = icmp sgt i32 %3, 0
  %5 = zext i1 %4 to i8
  ret i8 %5
}

; Function Attrs: inlinehint mustprogress uwtable
define linkonce_odr void @_ZN6icu_7713UnicodeStringC2Ev(ptr noundef nonnull align 8 dereferenceable(64) %0) unnamed_addr #1 comdat align 2 {
  %2 = alloca ptr, align 8
  store ptr %0, ptr %2, align 8, !tbaa !30
  %3 = load ptr, ptr %2, align 8
  call void @_ZN6icu_7711ReplaceableC2Ev(ptr noundef nonnull align 8 dereferenceable(8) %3)
  store ptr getelementptr inbounds inrange(-16, 88) ({ [13 x ptr] }, ptr @_ZTVN6icu_7713UnicodeStringE, i32 0, i32 0, i32 2), ptr %3, align 8, !tbaa !32
  %4 = getelementptr inbounds nuw %"class.icu_77::UnicodeString", ptr %3, i32 0, i32 1
  %5 = getelementptr inbounds nuw %struct.anon, ptr %4, i32 0, i32 0
  store i16 2, ptr %5, align 8, !tbaa !34
  ret void
}

; Function Attrs: mustprogress uwtable
define void @_ZN6icu_7710UCharsTrie8IteratorC2ERKS0_iR10UErrorCode(ptr noundef nonnull align 8 dereferenceable(120) %0, ptr noundef nonnull align 8 dereferenceable(28) %1, i32 noundef %2, ptr noundef nonnull align 4 dereferenceable(4) %3) unnamed_addr #0 align 2 personality ptr @__gxx_personality_v0 {
  %5 = alloca ptr, align 8
  %6 = alloca ptr, align 8
  %7 = alloca i32, align 4
  %8 = alloca ptr, align 8
  %9 = alloca ptr, align 8
  %10 = alloca i32, align 4
  %11 = alloca ptr, align 8
  %12 = alloca i1, align 1
  %13 = alloca i32, align 4
  %14 = alloca %"class.icu_77::ConstChar16Ptr", align 8
  store ptr %0, ptr %5, align 8, !tbaa !3
  store ptr %1, ptr %6, align 8, !tbaa !35
  store i32 %2, ptr %7, align 4, !tbaa !10
  store ptr %3, ptr %8, align 8, !tbaa !12
  %15 = load ptr, ptr %5, align 8
  %16 = getelementptr inbounds nuw %"class.icu_77::UCharsTrie::Iterator", ptr %15, i32 0, i32 0
  %17 = load ptr, ptr %6, align 8, !tbaa !35
  %18 = getelementptr inbounds nuw %"class.icu_77::UCharsTrie", ptr %17, i32 0, i32 1
  %19 = load ptr, ptr %18, align 8, !tbaa !37
  store ptr %19, ptr %16, align 8, !tbaa !13
  %20 = getelementptr inbounds nuw %"class.icu_77::UCharsTrie::Iterator", ptr %15, i32 0, i32 1
  %21 = load ptr, ptr %6, align 8, !tbaa !35
  %22 = getelementptr inbounds nuw %"class.icu_77::UCharsTrie", ptr %21, i32 0, i32 2
  %23 = load ptr, ptr %22, align 8, !tbaa !39
  store ptr %23, ptr %20, align 8, !tbaa !20
  %24 = getelementptr inbounds nuw %"class.icu_77::UCharsTrie::Iterator", ptr %15, i32 0, i32 2
  %25 = load ptr, ptr %6, align 8, !tbaa !35
  %26 = getelementptr inbounds nuw %"class.icu_77::UCharsTrie", ptr %25, i32 0, i32 2
  %27 = load ptr, ptr %26, align 8, !tbaa !39
  store ptr %27, ptr %24, align 8, !tbaa !21
  %28 = getelementptr inbounds nuw %"class.icu_77::UCharsTrie::Iterator", ptr %15, i32 0, i32 3
  %29 = load ptr, ptr %6, align 8, !tbaa !35
  %30 = getelementptr inbounds nuw %"class.icu_77::UCharsTrie", ptr %29, i32 0, i32 3
  %31 = load i32, ptr %30, align 8, !tbaa !40
  store i32 %31, ptr %28, align 8, !tbaa !22
  %32 = getelementptr inbounds nuw %"class.icu_77::UCharsTrie::Iterator", ptr %15, i32 0, i32 4
  %33 = load ptr, ptr %6, align 8, !tbaa !35
  %34 = getelementptr inbounds nuw %"class.icu_77::UCharsTrie", ptr %33, i32 0, i32 3
  %35 = load i32, ptr %34, align 8, !tbaa !40
  store i32 %35, ptr %32, align 4, !tbaa !23
  %36 = getelementptr inbounds nuw %"class.icu_77::UCharsTrie::Iterator", ptr %15, i32 0, i32 5
  store i8 0, ptr %36, align 8, !tbaa !24
  %37 = getelementptr inbounds nuw %"class.icu_77::UCharsTrie::Iterator", ptr %15, i32 0, i32 6
  call void @_ZN6icu_7713UnicodeStringC2Ev(ptr noundef nonnull align 8 dereferenceable(64) %37)
  %38 = getelementptr inbounds nuw %"class.icu_77::UCharsTrie::Iterator", ptr %15, i32 0, i32 7
  %39 = load i32, ptr %7, align 4, !tbaa !10
  store i32 %39, ptr %38, align 8, !tbaa !25
  %40 = getelementptr inbounds nuw %"class.icu_77::UCharsTrie::Iterator", ptr %15, i32 0, i32 8
  store i32 0, ptr %40, align 4, !tbaa !26
  %41 = getelementptr inbounds nuw %"class.icu_77::UCharsTrie::Iterator", ptr %15, i32 0, i32 9
  store ptr null, ptr %41, align 8, !tbaa !27
  %42 = load ptr, ptr %8, align 8, !tbaa !12
  %43 = load i32, ptr %42, align 4, !tbaa !28
  %44 = invoke noundef signext i8 @_ZL9U_FAILURE10UErrorCode(i32 noundef %43)
          to label %45 unwind label %48

45:                                               ; preds = %4
  %46 = icmp ne i8 %44, 0
  br i1 %46, label %47, label %52

47:                                               ; preds = %45
  br label %126

48:                                               ; preds = %58, %4
  %49 = landingpad { ptr, i32 }
          cleanup
  %50 = extractvalue { ptr, i32 } %49, 0
  store ptr %50, ptr %9, align 8
  %51 = extractvalue { ptr, i32 } %49, 1
  store i32 %51, ptr %10, align 4
  br label %128

52:                                               ; preds = %45
  %53 = call noundef ptr @_ZN6icu_777UMemorynwEm(i64 noundef 32) #7
  %54 = icmp eq ptr %53, null
  store i1 false, ptr %12, align 1
  br i1 %54, label %58, label %55

55:                                               ; preds = %52
  store ptr %53, ptr %11, align 8
  store i1 true, ptr %12, align 1
  %56 = load ptr, ptr %8, align 8, !tbaa !12
  invoke void @_ZN6icu_779UVector32C1ER10UErrorCode(ptr noundef nonnull align 8 dereferenceable(32) %53, ptr noundef nonnull align 4 dereferenceable(4) %56)
          to label %57 unwind label %67

57:                                               ; preds = %55
  br label %58

58:                                               ; preds = %57, %52
  %59 = phi ptr [ %53, %57 ], [ null, %52 ]
  %60 = getelementptr inbounds nuw %"class.icu_77::UCharsTrie::Iterator", ptr %15, i32 0, i32 9
  store ptr %59, ptr %60, align 8, !tbaa !27
  %61 = load ptr, ptr %8, align 8, !tbaa !12
  %62 = load i32, ptr %61, align 4, !tbaa !28
  %63 = invoke noundef signext i8 @_ZL9U_FAILURE10UErrorCode(i32 noundef %62)
          to label %64 unwind label %48

64:                                               ; preds = %58
  %65 = icmp ne i8 %63, 0
  br i1 %65, label %66, label %75

66:                                               ; preds = %64
  br label %126

67:                                               ; preds = %55
  %68 = landingpad { ptr, i32 }
          cleanup
  %69 = extractvalue { ptr, i32 } %68, 0
  store ptr %69, ptr %9, align 8
  %70 = extractvalue { ptr, i32 } %68, 1
  store i32 %70, ptr %10, align 4
  %71 = load i1, ptr %12, align 1
  br i1 %71, label %72, label %74

72:                                               ; preds = %67
  %73 = load ptr, ptr %11, align 8
  call void @_ZN6icu_777UMemorydlEPv(ptr noundef %73) #7
  br label %74

74:                                               ; preds = %72, %67
  br label %128

75:                                               ; preds = %64
  %76 = getelementptr inbounds nuw %"class.icu_77::UCharsTrie::Iterator", ptr %15, i32 0, i32 9
  %77 = load ptr, ptr %76, align 8, !tbaa !27
  %78 = icmp eq ptr %77, null
  br i1 %78, label %79, label %81

79:                                               ; preds = %75
  %80 = load ptr, ptr %8, align 8, !tbaa !12
  store i32 7, ptr %80, align 4, !tbaa !28
  br label %126

81:                                               ; preds = %75
  call void @llvm.lifetime.start.p0(i64 4, ptr %13) #7
  %82 = getelementptr inbounds nuw %"class.icu_77::UCharsTrie::Iterator", ptr %15, i32 0, i32 3
  %83 = load i32, ptr %82, align 8, !tbaa !22
  store i32 %83, ptr %13, align 4, !tbaa !10
  %84 = load i32, ptr %13, align 4, !tbaa !10
  %85 = icmp sge i32 %84, 0
  br i1 %85, label %86, label %125

86:                                               ; preds = %81
  %87 = load i32, ptr %13, align 4, !tbaa !10
  %88 = add nsw i32 %87, 1
  store i32 %88, ptr %13, align 4, !tbaa !10
  %89 = getelementptr inbounds nuw %"class.icu_77::UCharsTrie::Iterator", ptr %15, i32 0, i32 7
  %90 = load i32, ptr %89, align 8, !tbaa !25
  %91 = icmp sgt i32 %90, 0
  br i1 %91, label %92, label %100

92:                                               ; preds = %86
  %93 = load i32, ptr %13, align 4, !tbaa !10
  %94 = getelementptr inbounds nuw %"class.icu_77::UCharsTrie::Iterator", ptr %15, i32 0, i32 7
  %95 = load i32, ptr %94, align 8, !tbaa !25
  %96 = icmp sgt i32 %93, %95
  br i1 %96, label %97, label %100

97:                                               ; preds = %92
  %98 = getelementptr inbounds nuw %"class.icu_77::UCharsTrie::Iterator", ptr %15, i32 0, i32 7
  %99 = load i32, ptr %98, align 8, !tbaa !25
  store i32 %99, ptr %13, align 4, !tbaa !10
  br label %100

100:                                              ; preds = %97, %92, %86
  %101 = getelementptr inbounds nuw %"class.icu_77::UCharsTrie::Iterator", ptr %15, i32 0, i32 6
  %102 = getelementptr inbounds nuw %"class.icu_77::UCharsTrie::Iterator", ptr %15, i32 0, i32 1
  %103 = load ptr, ptr %102, align 8, !tbaa !20
  invoke void @_ZN6icu_7714ConstChar16PtrC2EPKDs(ptr noundef nonnull align 8 dereferenceable(8) %14, ptr noundef %103)
          to label %104 unwind label %117

104:                                              ; preds = %100
  %105 = load i32, ptr %13, align 4, !tbaa !10
  %106 = invoke noundef nonnull align 8 dereferenceable(64) ptr @_ZN6icu_7713UnicodeString6appendENS_14ConstChar16PtrEi(ptr noundef nonnull align 8 dereferenceable(64) %101, ptr noundef %14, i32 noundef %105)
          to label %107 unwind label %121

107:                                              ; preds = %104
  call void @_ZN6icu_7714ConstChar16PtrD2Ev(ptr noundef nonnull align 8 dereferenceable(8) %14) #7
  %108 = load i32, ptr %13, align 4, !tbaa !10
  %109 = getelementptr inbounds nuw %"class.icu_77::UCharsTrie::Iterator", ptr %15, i32 0, i32 1
  %110 = load ptr, ptr %109, align 8, !tbaa !20
  %111 = sext i32 %108 to i64
  %112 = getelementptr inbounds i16, ptr %110, i64 %111
  store ptr %112, ptr %109, align 8, !tbaa !20
  %113 = load i32, ptr %13, align 4, !tbaa !10
  %114 = getelementptr inbounds nuw %"class.icu_77::UCharsTrie::Iterator", ptr %15, i32 0, i32 3
  %115 = load i32, ptr %114, align 8, !tbaa !22
  %116 = sub nsw i32 %115, %113
  store i32 %116, ptr %114, align 8, !tbaa !22
  br label %125

117:                                              ; preds = %100
  %118 = landingpad { ptr, i32 }
          cleanup
  %119 = extractvalue { ptr, i32 } %118, 0
  store ptr %119, ptr %9, align 8
  %120 = extractvalue { ptr, i32 } %118, 1
  store i32 %120, ptr %10, align 4
  br label %127

121:                                              ; preds = %104
  %122 = landingpad { ptr, i32 }
          cleanup
  %123 = extractvalue { ptr, i32 } %122, 0
  store ptr %123, ptr %9, align 8
  %124 = extractvalue { ptr, i32 } %122, 1
  store i32 %124, ptr %10, align 4
  call void @_ZN6icu_7714ConstChar16PtrD2Ev(ptr noundef nonnull align 8 dereferenceable(8) %14) #7
  br label %127

125:                                              ; preds = %107, %81
  call void @llvm.lifetime.end.p0(i64 4, ptr %13) #7
  br label %126

126:                                              ; preds = %125, %79, %66, %47
  ret void

127:                                              ; preds = %121, %117
  call void @llvm.lifetime.end.p0(i64 4, ptr %13) #7
  br label %128

128:                                              ; preds = %127, %74, %48
  call void @_ZN6icu_7713UnicodeStringD1Ev(ptr noundef nonnull align 8 dereferenceable(64) %37) #7
  br label %129

129:                                              ; preds = %128
  %130 = load ptr, ptr %9, align 8
  %131 = load i32, ptr %10, align 4
  %132 = insertvalue { ptr, i32 } poison, ptr %130, 0
  %133 = insertvalue { ptr, i32 } %132, i32 %131, 1
  resume { ptr, i32 } %133
}