; Function Attrs: mustprogress uwtable
define void @_ZN6icu_7710UCharsTrie8IteratorC2ERKS0_iR10UErrorCode(ptr noundef nonnull align 8 dereferenceable(120) initializes((0, 33), (40, 50), (104, 120)) %0, ptr noundef nonnull readonly align 8 captures(none) dereferenceable(28) %1, i32 noundef %2, ptr noundef nonnull align 4 dereferenceable(4) %3) unnamed_addr #0 align 2 personality ptr @__gxx_personality_v0 {
  %5 = getelementptr inbounds nuw i8, ptr %1, i64 8
  %6 = load ptr, ptr %5, align 8, !tbaa !29
  store ptr %6, ptr %0, align 8, !tbaa !9
  %7 = getelementptr inbounds nuw i8, ptr %0, i64 8
  %8 = getelementptr inbounds nuw i8, ptr %1, i64 16
  %9 = load ptr, ptr %8, align 8, !tbaa !31
  store ptr %9, ptr %7, align 8, !tbaa !16
  %10 = getelementptr inbounds nuw i8, ptr %0, i64 16
  store ptr %9, ptr %10, align 8, !tbaa !17
  %11 = getelementptr inbounds nuw i8, ptr %0, i64 24
  %12 = getelementptr inbounds nuw i8, ptr %1, i64 24
  %13 = load i32, ptr %12, align 8, !tbaa !32
  store i32 %13, ptr %11, align 8, !tbaa !18
  %14 = getelementptr inbounds nuw i8, ptr %0, i64 28
  store i32 %13, ptr %14, align 4, !tbaa !19
  %15 = getelementptr inbounds nuw i8, ptr %0, i64 32
  store i8 0, ptr %15, align 8, !tbaa !20
  %16 = getelementptr inbounds nuw i8, ptr %0, i64 40
  store ptr getelementptr inbounds nuw inrange(-16, 88) (i8, ptr @_ZTVN6icu_7713UnicodeStringE, i64 16), ptr %16, align 8, !tbaa !21
  %17 = getelementptr inbounds nuw i8, ptr %0, i64 48
  store i16 2, ptr %17, align 8, !tbaa !23
  %18 = getelementptr inbounds nuw i8, ptr %0, i64 104
  store i32 %2, ptr %18, align 8, !tbaa !24
  %19 = getelementptr inbounds nuw i8, ptr %0, i64 108
  store i32 0, ptr %19, align 4, !tbaa !25
  %20 = getelementptr inbounds nuw i8, ptr %0, i64 112
  store ptr null, ptr %20, align 8, !tbaa !26
  %21 = load i32, ptr %3, align 4, !tbaa !27
  %22 = icmp slt i32 %21, 1
  br i1 %22, label %23, label %51

23:                                               ; preds = %4
  %24 = tail call noundef ptr @_ZN6icu_777UMemorynwEm(i64 noundef 32) #6
  %25 = icmp eq ptr %24, null
  br i1 %25, label %.thread, label %26

26:                                               ; preds = %23
  invoke void @_ZN6icu_779UVector32C1ER10UErrorCode(ptr noundef nonnull align 8 dereferenceable(32) %24, ptr noundef nonnull align 4 dereferenceable(4) %3)
          to label %27 unwind label %32

27:                                               ; preds = %26
  store ptr %24, ptr %20, align 8, !tbaa !26
  %28 = load i32, ptr %3, align 4, !tbaa !27
  %29 = icmp slt i32 %28, 1
  br i1 %29, label %35, label %51

.thread:                                          ; preds = %23
  store ptr null, ptr %20, align 8, !tbaa !26
  %30 = load i32, ptr %3, align 4, !tbaa !27
  %31 = icmp slt i32 %30, 1
  br i1 %31, label %34, label %51

32:                                               ; preds = %26
  %33 = landingpad { ptr, i32 }
          cleanup
  tail call void @_ZN6icu_777UMemorydlEPv(ptr noundef nonnull %24) #6
  br label %52

34:                                               ; preds = %.thread
  store i32 7, ptr %3, align 4, !tbaa !27
  br label %51

35:                                               ; preds = %27
  %36 = load i32, ptr %11, align 8, !tbaa !18
  %37 = icmp sgt i32 %36, -1
  br i1 %37, label %38, label %51

38:                                               ; preds = %35
  %39 = add nuw nsw i32 %36, 1
  %40 = load i32, ptr %18, align 8, !tbaa !24
  %41 = icmp slt i32 %40, 1
  %.not27 = icmp slt i32 %36, %40
  %or.cond = or i1 %41, %.not27
  %.0 = select i1 %or.cond, i32 %39, i32 %40
  %42 = load ptr, ptr %7, align 8, !tbaa !16
  %43 = invoke noundef nonnull align 8 dereferenceable(64) ptr @_ZN6icu_7713UnicodeString8doAppendEPKDsii(ptr noundef nonnull align 8 dereferenceable(64) %16, ptr noundef %42, i32 noundef 0, i32 noundef %.0)
          to label %_ZN6icu_7713UnicodeString6appendENS_14ConstChar16PtrEi.exit unwind label %49

_ZN6icu_7713UnicodeString6appendENS_14ConstChar16PtrEi.exit: ; preds = %38
  tail call void asm sideeffect "", "rm,~{memory},~{dirflag},~{fpsr},~{flags}"(ptr %42) #6, !srcloc !33
  %44 = load ptr, ptr %7, align 8, !tbaa !16
  %45 = zext nneg i32 %.0 to i64
  %46 = getelementptr inbounds nuw i16, ptr %44, i64 %45
  store ptr %46, ptr %7, align 8, !tbaa !16
  %47 = load i32, ptr %11, align 8, !tbaa !18
  %48 = sub nsw i32 %47, %.0
  store i32 %48, ptr %11, align 8, !tbaa !18
  br label %51

49:                                               ; preds = %38
  %50 = landingpad { ptr, i32 }
          cleanup
  tail call void asm sideeffect "", "rm,~{memory},~{dirflag},~{fpsr},~{flags}"(ptr %42) #6, !srcloc !33
  br label %52

51:                                               ; preds = %.thread, %35, %_ZN6icu_7713UnicodeString6appendENS_14ConstChar16PtrEi.exit, %27, %4, %34
  ret void

52:                                               ; preds = %32, %49
  %.pn = phi { ptr, i32 } [ %50, %49 ], [ %33, %32 ]
  tail call void @_ZN6icu_7713UnicodeStringD1Ev(ptr noundef nonnull align 8 dereferenceable(64) %16) #6
  resume { ptr, i32 } %.pn
}